; Function Attrs: nofree nounwind uwtable
define void @Gia_ManPrint(ptr noundef readonly captures(none) %0) local_unnamed_addr #15 {
  %2 = getelementptr inbounds nuw i8, ptr %0, i64 24
  %3 = load i32, ptr %2, align 8
  %4 = getelementptr inbounds nuw i8, ptr %0, i64 64
  %5 = load ptr, ptr %4, align 8
  %6 = getelementptr i8, ptr %5, i64 4
  %.val3.i = load i32, ptr %6, align 4
  %7 = getelementptr inbounds nuw i8, ptr %0, i64 72
  %8 = load ptr, ptr %7, align 8
  %9 = getelementptr i8, ptr %8, i64 4
  %.val.i = load i32, ptr %9, align 4
  %10 = add i32 %.val.i, %.val3.i
  %11 = xor i32 %10, -1
  %12 = getelementptr i8, ptr %0, i64 48
  %.val12 = load i32, ptr %12, align 8
  %13 = getelementptr i8, ptr %0, i64 52
  %.val14 = load i32, ptr %13, align 4
  %.neg = add i32 %3, %11
  %14 = add i32 %.val12, %.val14
  %15 = sub i32 %.neg, %14
  %16 = tail call i32 (ptr, ...) @printf(ptr noundef nonnull dereferenceable(1) @.str.20, i32 noundef %15, i32 noundef %.val12, i32 noundef %.val14)
  %17 = getelementptr i8, ptr %0, i64 32
  %18 = load i32, ptr %2, align 8
  %19 = icmp sgt i32 %18, 0
  br i1 %19, label %.lr.ph, label %.critedge

.lr.ph:                                           ; preds = %1, %20
  %indvars.iv = phi i64 [ %indvars.iv.next, %20 ], [ 0, %1 ]
  %.val = load ptr, ptr %17, align 8
  %.not = icmp eq ptr %.val, null
  br i1 %.not, label %.critedge, label %20

20:                                               ; preds = %.lr.ph
  %21 = getelementptr inbounds nuw %struct.Gia_Obj_t_, ptr %.val, i64 %indvars.iv
  tail call void @Gia_ObjPrint(ptr noundef nonnull %0, ptr noundef nonnull %21)
  %indvars.iv.next = add nuw nsw i64 %indvars.iv, 1
  %22 = load i32, ptr %2, align 8
  %23 = sext i32 %22 to i64
  %24 = icmp slt i64 %indvars.iv.next, %23
  br i1 %24, label %.lr.ph, label %.critedge, !llvm.loop !54

.critedge:                                        ; preds = %.lr.ph, %20, %1
  ret void
}